target datalayout = "e-m:e-p270:32:32-p271:32:32-p272:64:64-i64:64-i128:128-f80:128-n8:16:32:64-S128"
target triple = "x86_64-pc-linux-gnu"

%struct.AVExpr = type { i32, double, i32, %union.anon, [3 x ptr], ptr, ptr }
%union.anon = type { ptr }
%struct.Parser = type { ptr, i32, ptr, ptr, ptr, ptr, ptr, ptr, ptr, ptr, i32, ptr, ptr, ptr }

; Function Attrs: nounwind uwtable
define internal ptr @make_eval_expr(i32 noundef %0, i32 noundef %1, ptr noundef %2, ptr noundef %3) #0 {
  %5 = alloca ptr, align 8
  %6 = alloca i32, align 4
  %7 = alloca i32, align 4
  %8 = alloca ptr, align 8
  %9 = alloca ptr, align 8
  %10 = alloca ptr, align 8
  %11 = alloca i32, align 4
  store i32 %0, ptr %6, align 4, !tbaa !17
  store i32 %1, ptr %7, align 4, !tbaa !17
  store ptr %2, ptr %8, align 8, !tbaa !21
  store ptr %3, ptr %9, align 8, !tbaa !21
  call void @llvm.lifetime.start.p0(i64 8, ptr %10) #12
  %12 = call noalias ptr @av_mallocz(i64 noundef 72)
  store ptr %12, ptr %10, align 8, !tbaa !21
  %13 = load ptr, ptr %10, align 8, !tbaa !21
  %14 = icmp ne ptr %13, null
  br i1 %14, label %16, label %15

15:                                               ; preds = %4
  store ptr null, ptr %5, align 8
  store i32 1, ptr %11, align 4
  br label %33

16:                                               ; preds = %4
  %17 = load i32, ptr %6, align 4, !tbaa !17
  %18 = load ptr, ptr %10, align 8, !tbaa !21
  %19 = getelementptr inbounds nuw %struct.AVExpr, ptr %18, i32 0, i32 0
  store i32 %17, ptr %19, align 8, !tbaa !49
  %20 = load i32, ptr %7, align 4, !tbaa !17
  %21 = sitofp i32 %20 to double
  %22 = load ptr, ptr %10, align 8, !tbaa !21
  %23 = getelementptr inbounds nuw %struct.AVExpr, ptr %22, i32 0, i32 1
  store double %21, ptr %23, align 8, !tbaa !59
  %24 = load ptr, ptr %8, align 8, !tbaa !21
  %25 = load ptr, ptr %10, align 8, !tbaa !21
  %26 = getelementptr inbounds nuw %struct.AVExpr, ptr %25, i32 0, i32 4
  %27 = getelementptr inbounds [3 x ptr], ptr %26, i64 0, i64 0
  store ptr %24, ptr %27, align 8, !tbaa !21
  %28 = load ptr, ptr %9, align 8, !tbaa !21
  %29 = load ptr, ptr %10, align 8, !tbaa !21
  %30 = getelementptr inbounds nuw %struct.AVExpr, ptr %29, i32 0, i32 4
  %31 = getelementptr inbounds [3 x ptr], ptr %30, i64 0, i64 1
  store ptr %28, ptr %31, align 8, !tbaa !21
  %32 = load ptr, ptr %10, align 8, !tbaa !21
  store ptr %32, ptr %5, align 8
  store i32 1, ptr %11, align 4
  br label %33

33:                                               ; preds = %16, %15
  call void @llvm.lifetime.end.p0(i64 8, ptr %10) #12
  %34 = load ptr, ptr %5, align 8
  ret ptr %34
}

; Function Attrs: nounwind uwtable
define internal i32 @parse_subexpr(ptr noundef %0, ptr noundef %1) #0 {
  %3 = alloca i32, align 4
  %4 = alloca ptr, align 8
  %5 = alloca ptr, align 8
  %6 = alloca i32, align 4
  %7 = alloca ptr, align 8
  %8 = alloca ptr, align 8
  %9 = alloca ptr, align 8
  %10 = alloca i32, align 4
  store ptr %0, ptr %4, align 8, !tbaa !23
  store ptr %1, ptr %5, align 8, !tbaa !46
  call void @llvm.lifetime.start.p0(i64 4, ptr %6) #12
  call void @llvm.lifetime.start.p0(i64 8, ptr %7) #12
  call void @llvm.lifetime.start.p0(i64 8, ptr %8) #12
  call void @llvm.lifetime.start.p0(i64 8, ptr %9) #12
  %11 = load ptr, ptr %5, align 8, !tbaa !46
  %12 = call i32 @parse_term(ptr noundef %7, ptr noundef %11)
  store i32 %12, ptr %6, align 4, !tbaa !17
  %13 = icmp slt i32 %12, 0
  br i1 %13, label %14, label %16

14:                                               ; preds = %2
  %15 = load i32, ptr %6, align 4, !tbaa !17
  store i32 %15, ptr %3, align 4
  store i32 1, ptr %10, align 4
  br label %54

16:                                               ; preds = %2
  br label %17

17:                                               ; preds = %50, %16
  %18 = load ptr, ptr %5, align 8, !tbaa !46
  %19 = getelementptr inbounds nuw %struct.Parser, ptr %18, i32 0, i32 2
  %20 = load ptr, ptr %19, align 8, !tbaa !35
  %21 = load i8, ptr %20, align 1, !tbaa !12
  %22 = sext i8 %21 to i32
  %23 = icmp eq i32 %22, 43
  br i1 %23, label %31, label %24

24:                                               ; preds = %17
  %25 = load ptr, ptr %5, align 8, !tbaa !46
  %26 = getelementptr inbounds nuw %struct.Parser, ptr %25, i32 0, i32 2
  %27 = load ptr, ptr %26, align 8, !tbaa !35
  %28 = load i8, ptr %27, align 1, !tbaa !12
  %29 = sext i8 %28 to i32
  %30 = icmp eq i32 %29, 45
  br label %31

31:                                               ; preds = %24, %17
  %32 = phi i1 [ true, %17 ], [ %30, %24 ]
  br i1 %32, label %33, label %51

33:                                               ; preds = %31
  %34 = load ptr, ptr %7, align 8, !tbaa !21
  store ptr %34, ptr %8, align 8, !tbaa !21
  %35 = load ptr, ptr %5, align 8, !tbaa !46
  %36 = call i32 @parse_term(ptr noundef %9, ptr noundef %35)
  store i32 %36, ptr %6, align 4, !tbaa !17
  %37 = icmp slt i32 %36, 0
  br i1 %37, label %38, label %41

38:                                               ; preds = %33
  %39 = load ptr, ptr %8, align 8, !tbaa !21
  call void @av_expr_free(ptr noundef %39)
  %40 = load i32, ptr %6, align 4, !tbaa !17
  store i32 %40, ptr %3, align 4
  store i32 1, ptr %10, align 4
  br label %54

41:                                               ; preds = %33
  %42 = load ptr, ptr %8, align 8, !tbaa !21
  %43 = load ptr, ptr %9, align 8, !tbaa !21
  %44 = call ptr @make_eval_expr(i32 noundef 21, i32 noundef 1, ptr noundef %42, ptr noundef %43)
  store ptr %44, ptr %7, align 8, !tbaa !21
  %45 = load ptr, ptr %7, align 8, !tbaa !21
  %46 = icmp ne ptr %45, null
  br i1 %46, label %50, label %47

47:                                               ; preds = %41
  %48 = load ptr, ptr %8, align 8, !tbaa !21
  call void @av_expr_free(ptr noundef %48)
  %49 = load ptr, ptr %9, align 8, !tbaa !21
  call void @av_expr_free(ptr noundef %49)
  store i32 -12, ptr %3, align 4
  store i32 1, ptr %10, align 4
  br label %54

50:                                               ; preds = %41
  br label %17, !llvm.loop !69

51:                                               ; preds = %31
  %52 = load ptr, ptr %7, align 8, !tbaa !21
  %53 = load ptr, ptr %4, align 8, !tbaa !23
  store ptr %52, ptr %53, align 8, !tbaa !21
  store i32 0, ptr %3, align 4
  store i32 1, ptr %10, align 4
  br label %54

54:                                               ; preds = %51, %47, %38, %14
  call void @llvm.lifetime.end.p0(i64 8, ptr %9) #12
  call void @llvm.lifetime.end.p0(i64 8, ptr %8) #12
  call void @llvm.lifetime.end.p0(i64 8, ptr %7) #12
  call void @llvm.lifetime.end.p0(i64 4, ptr %6) #12
  %55 = load i32, ptr %3, align 4
  ret i32 %55
}