; Function Attrs: nounwind uwtable
define internal fastcc range(i32 -2147483648, 1) i32 @parse_subexpr(ptr noundef nonnull writeonly captures(none) %0, ptr noundef nonnull %1) unnamed_addr #3 {
  %3 = alloca ptr, align 8
  %4 = alloca ptr, align 8
  call void @llvm.lifetime.start.p0(i64 8, ptr nonnull %3) #14
  call void @llvm.lifetime.start.p0(i64 8, ptr nonnull %4) #14
  %5 = call fastcc i32 @parse_term(ptr noundef %3, ptr noundef %1)
  %6 = icmp slt i32 %5, 0
  br i1 %6, label %23, label %.preheader

.preheader:                                       ; preds = %2
  %7 = getelementptr inbounds nuw i8, ptr %1, i64 16
  %.promoted = load ptr, ptr %3, align 8
  br label %8

8:                                                ; preds = %.preheader, %make_eval_expr.exit
  %9 = phi ptr [ %.promoted, %.preheader ], [ %17, %make_eval_expr.exit ]
  %10 = load ptr, ptr %7, align 8, !tbaa !28
  %11 = load i8, ptr %10, align 1, !tbaa !4
  switch i8 %11, label %22 [
    i8 43, label %.critedge
    i8 45, label %.critedge
  ]

.critedge:                                        ; preds = %8, %8
  %12 = call fastcc i32 @parse_term(ptr noundef %4, ptr noundef %1)
  %13 = icmp slt i32 %12, 0
  br i1 %13, label %14, label %15

14:                                               ; preds = %.critedge
  tail call void @av_expr_free(ptr noundef %9)
  br label %23

15:                                               ; preds = %.critedge
  %16 = load ptr, ptr %4, align 8, !tbaa !15
  %17 = tail call noalias ptr @av_mallocz(i64 noundef 72) #14
  %.not.i = icmp eq ptr %17, null
  br i1 %.not.i, label %21, label %make_eval_expr.exit

make_eval_expr.exit:                              ; preds = %15
  store i32 21, ptr %17, align 8, !tbaa !39
  %18 = getelementptr inbounds nuw i8, ptr %17, i64 8
  store double 1.000000e+00, ptr %18, align 8, !tbaa !40
  %19 = getelementptr inbounds nuw i8, ptr %17, i64 32
  store ptr %9, ptr %19, align 8, !tbaa !15
  %20 = getelementptr inbounds nuw i8, ptr %17, i64 40
  store ptr %16, ptr %20, align 8, !tbaa !15
  br label %8, !llvm.loop !61

21:                                               ; preds = %15
  tail call void @av_expr_free(ptr noundef %9)
  tail call void @av_expr_free(ptr noundef %16)
  br label %23

22:                                               ; preds = %8
  store ptr %9, ptr %0, align 8, !tbaa !15
  br label %23

23:                                               ; preds = %2, %22, %21, %14
  %.0 = phi i32 [ %12, %14 ], [ -12, %21 ], [ 0, %22 ], [ %5, %2 ]
  call void @llvm.lifetime.end.p0(i64 8, ptr nonnull %4) #14
  call void @llvm.lifetime.end.p0(i64 8, ptr nonnull %3) #14
  ret i32 %.0
}